target datalayout = "e-m:e-p270:32:32-p271:32:32-p272:64:64-i64:64-i128:128-f80:128-n8:16:32:64-S128"
target triple = "x86_64-unknown-linux-gnu"

%"class.std::__cxx11::basic_string" = type { %"struct.std::__cxx11::basic_string<char>::_Alloc_hider", i64, %union.anon }
%"struct.std::__cxx11::basic_string<char>::_Alloc_hider" = type { ptr }
%union.anon = type { i64, [8 x i8] }
%"class.rocksdb::Slice" = type { ptr, i64 }
%"class.rocksdb::UserComparatorWrapper" = type { ptr }
%"class.rocksdb::BlockBasedTableIterator" = type { %"class.rocksdb::InternalIteratorBase", %"class.std::unique_ptr", ptr, ptr, ptr, %"class.rocksdb::UserComparatorWrapper", ptr, %"class.rocksdb::DataBlockIter", ptr, i64, %"struct.rocksdb::BlockCacheLookupContext", %"class.rocksdb::BlockPrefetcher", i8, i8, i8, i8, i8, i8, i8, i8, i8, i8, i8, %"class.std::deque", i8, i8, i32 }
%"class.rocksdb::InternalIteratorBase" = type { ptr, %"class.rocksdb::Cleanable" }
%"class.rocksdb::Cleanable" = type { %"struct.rocksdb::Cleanable::Cleanup" }
%"struct.rocksdb::Cleanable::Cleanup" = type { ptr, ptr, ptr, ptr }
%"class.std::unique_ptr" = type { %"struct.std::__uniq_ptr_data" }
%"struct.std::__uniq_ptr_data" = type { %"class.std::__uniq_ptr_impl" }
%"class.std::__uniq_ptr_impl" = type { %"class.std::tuple" }
%"class.std::tuple" = type { %"struct.std::_Tuple_impl" }
%"struct.std::_Tuple_impl" = type { %"struct.std::_Head_base.1" }
%"struct.std::_Head_base.1" = type { ptr }
%"class.rocksdb::DataBlockIter" = type { %"class.rocksdb::BlockIter", ptr, i32, %"class.std::__cxx11::basic_string", %"class.std::vector.21", i32, ptr }
%"class.rocksdb::BlockIter" = type { %"class.rocksdb::InternalIteratorBase", %"class.std::unique_ptr.2", ptr, i32, i32, i32, i32, %"class.rocksdb::IterKey", %"class.rocksdb::IterKey", %"class.rocksdb::Slice", %"class.rocksdb::Status", %"class.rocksdb::Slice", i64, i64, i8, ptr, i32, i32, i8, i8, i8, ptr }
%"class.std::unique_ptr.2" = type { %"struct.std::__uniq_ptr_data.3" }
%"struct.std::__uniq_ptr_data.3" = type { %"class.std::__uniq_ptr_impl.4" }
%"class.std::__uniq_ptr_impl.4" = type { %"class.std::tuple.5" }
%"class.std::tuple.5" = type { %"struct.std::_Tuple_impl.6" }
%"struct.std::_Tuple_impl.6" = type { %"struct.std::_Head_base.9" }
%"struct.std::_Head_base.9" = type { ptr }
%"class.rocksdb::IterKey" = type { ptr, ptr, i64, i64, [39 x i8], i8 }
%"class.rocksdb::Status" = type { i8, i8, i8, i8, i8, i8, %"class.std::unique_ptr.10" }
%"class.std::unique_ptr.10" = type { %"struct.std::__uniq_ptr_data.11" }
%"struct.std::__uniq_ptr_data.11" = type { %"class.std::__uniq_ptr_impl.12" }
%"class.std::__uniq_ptr_impl.12" = type { %"class.std::tuple.13" }
%"class.std::tuple.13" = type { %"struct.std::_Tuple_impl.14" }
%"struct.std::_Tuple_impl.14" = type { %"struct.std::_Head_base.17" }
%"struct.std::_Head_base.17" = type { ptr }
%"class.std::vector.21" = type { %"struct.std::_Vector_base.22" }
%"struct.std::_Vector_base.22" = type { %"struct.std::_Vector_base<rocksdb::DataBlockIter::CachedPrevEntry, std::allocator<rocksdb::DataBlockIter::CachedPrevEntry>>::_Vector_impl" }
%"struct.std::_Vector_base<rocksdb::DataBlockIter::CachedPrevEntry, std::allocator<rocksdb::DataBlockIter::CachedPrevEntry>>::_Vector_impl" = type { %"struct.std::_Vector_base<rocksdb::DataBlockIter::CachedPrevEntry, std::allocator<rocksdb::DataBlockIter::CachedPrevEntry>>::_Vector_impl_data" }
%"struct.std::_Vector_base<rocksdb::DataBlockIter::CachedPrevEntry, std::allocator<rocksdb::DataBlockIter::CachedPrevEntry>>::_Vector_impl_data" = type { ptr, ptr, ptr }
%"struct.rocksdb::BlockCacheLookupContext" = type <{ i8, i8, i8, i8, [4 x i8], i64, %"class.std::__cxx11::basic_string", i64, i64, %"class.std::__cxx11::basic_string", i8, [7 x i8] }>
%"class.rocksdb::BlockPrefetcher" = type { i64, i64, i64, i64, i64, i64, i64, %"class.std::unique_ptr.26" }
%"class.std::unique_ptr.26" = type { %"struct.std::__uniq_ptr_data.27" }
%"struct.std::__uniq_ptr_data.27" = type { %"class.std::__uniq_ptr_impl.28" }
%"class.std::__uniq_ptr_impl.28" = type { %"class.std::tuple.29" }
%"class.std::tuple.29" = type { %"struct.std::_Tuple_impl.30" }
%"struct.std::_Tuple_impl.30" = type { %"struct.std::_Head_base.33" }
%"struct.std::_Head_base.33" = type { ptr }
%"class.std::deque" = type { %"class.std::_Deque_base" }
%"class.std::_Deque_base" = type { %"struct.std::_Deque_base<rocksdb::BlockBasedTableIterator::BlockHandleInfo, std::allocator<rocksdb::BlockBasedTableIterator::BlockHandleInfo>>::_Deque_impl" }
%"struct.std::_Deque_base<rocksdb::BlockBasedTableIterator::BlockHandleInfo, std::allocator<rocksdb::BlockBasedTableIterator::BlockHandleInfo>>::_Deque_impl" = type { %"struct.std::_Deque_base<rocksdb::BlockBasedTableIterator::BlockHandleInfo, std::allocator<rocksdb::BlockBasedTableIterator::BlockHandleInfo>>::_Deque_impl_data" }
%"struct.std::_Deque_base<rocksdb::BlockBasedTableIterator::BlockHandleInfo, std::allocator<rocksdb::BlockBasedTableIterator::BlockHandleInfo>>::_Deque_impl_data" = type { ptr, i64, %"struct.std::_Deque_iterator", %"struct.std::_Deque_iterator" }
%"struct.std::_Deque_iterator" = type { ptr, ptr, ptr, ptr }

; Function Attrs: mustprogress nounwind uwtable
define linkonce_odr noundef zeroext i1 @_ZNK7rocksdb9BlockIterINS_5SliceEE5ValidEv(ptr noundef nonnull align 8 dereferenceable(320) %this) unnamed_addr #1 comdat align 2 {
entry:
  %this.addr = alloca ptr, align 8
  store ptr %this, ptr %this.addr, align 8
  %this1 = load ptr, ptr %this.addr, align 8
  %current_ = getelementptr inbounds %"class.rocksdb::BlockIter", ptr %this1, i32 0, i32 6
  %0 = load i32, ptr %current_, align 4
  %restarts_ = getelementptr inbounds %"class.rocksdb::BlockIter", ptr %this1, i32 0, i32 5
  %1 = load i32, ptr %restarts_, align 8
  %cmp = icmp ult i32 %0, %1
  ret i1 %cmp
}

; Function Attrs: mustprogress uwtable
define void @_ZN7rocksdb23BlockBasedTableIterator14FindKeyForwardEv(ptr noundef nonnull align 8 dereferenceable(784) %this) #0 align 2 {
entry:
  %this.addr = alloca ptr, align 8
  store ptr %this, ptr %this.addr, align 8
  %this1 = load ptr, ptr %this.addr, align 8
  %block_iter_ = getelementptr inbounds %"class.rocksdb::BlockBasedTableIterator", ptr %this1, i32 0, i32 7
  %call = call noundef zeroext i1 @_ZNK7rocksdb9BlockIterINS_5SliceEE5ValidEv(ptr noundef nonnull align 8 dereferenceable(320) %block_iter_)
  br i1 %call, label %if.else, label %if.then

if.then:                                          ; preds = %entry
  call void @_ZN7rocksdb23BlockBasedTableIterator16FindBlockForwardEv(ptr noundef nonnull align 8 dereferenceable(784) %this1)
  br label %if.end

if.else:                                          ; preds = %entry
  br label %if.end

if.end:                                           ; preds = %if.else, %if.then
  ret void
}