; Function Attrs: mustprogress uwtable
define void @_ZN7rocksdb23BlockBasedTableIterator14FindKeyForwardEv(ptr noundef nonnull align 8 dereferenceable(784) %this) local_unnamed_addr #3 align 2 {
entry:
  %current_.i = getelementptr inbounds i8, ptr %this, i64 156
  %0 = load i32, ptr %current_.i, align 4
  %restarts_.i = getelementptr inbounds i8, ptr %this, i64 152
  %1 = load i32, ptr %restarts_.i, align 8
  %cmp.i = icmp ult i32 %0, %1
  br i1 %cmp.i, label %if.end, label %if.then

if.then:                                          ; preds = %entry
  tail call void @_ZN7rocksdb23BlockBasedTableIterator16FindBlockForwardEv(ptr noundef nonnull align 8 dereferenceable(784) %this)
  br label %if.end

if.end:                                           ; preds = %entry, %if.then
  ret void
}